EXPORTS
    _ZN10FileStream4ReadE5ArrayIhEii @1
    _ZN10FileStream5FlushEv @2
    _ZN10FileStream5WriteE5ArrayIhEii @3
    _ZN10FileStream6GetLenEv @4
    _ZN10FileStream6GetPosEv @5
    _ZN10FileStream6SetLenEl @6
    _ZN10FileStream6SetPosEl @7
    _ZN10FileStreamC1E9StdString @8
    _ZN10FileStreamC1EP6_iobuf @9
    _ZN10FileStreamC2E9StdString @10
    _ZN10FileStreamC2EP6_iobuf @11
    _ZN10FileStreamD0Ev @12
    _ZN10FileStreamD1Ev @13
    _ZN10FileStreamD2Ev @14
    _ZN5ArrayIhEC1EPh @15
    _ZN5ArrayIhED1Ev @16
    _ZN6System2IO12BinaryReader10ReadDoubleEv @17
    _ZN6System2IO12BinaryReader10ReadStringEv @18
    _ZN6System2IO12BinaryReader9ReadFloatEv @19
    _ZN6System2IO12BinaryReader9ReadInt32Ev @20
    _ZN6System2IO12BinaryReader9ReadInt64Ev @21
    _ZN6System2IO12BinaryReaderC1EPNS0_6StreamE @22
    _ZN6System2IO12BinaryReaderC2EPNS0_6StreamE @23
    _ZN6System2IO12BinaryWriter5WriteE5ArrayIhE @24
    _ZN6System2IO12BinaryWriter5WriteE9StdString @25
    _ZN6System2IO12BinaryWriter5WriteEd @26
    _ZN6System2IO12BinaryWriter5WriteEf @27
    _ZN6System2IO12BinaryWriter5WriteEi @28
    _ZN6System2IO12BinaryWriter5WriteEl @29
    _ZN6System2IO12BinaryWriterC1EPNS0_6StreamE @30
    _ZN6System2IO12BinaryWriterC2EPNS0_6StreamE @31
    _ZN6System2IO12BinaryWriterD0Ev @32
    _ZN6System2IO12BinaryWriterD1Ev @33
    _ZN6System2IO12BinaryWriterD2Ev @34
    _ZN6System2IO6StreamC1Ev @35
    _ZN6System2IO6StreamC2Ev @36
    _ZN6System2IO6StreamD0Ev @37
    _ZN6System2IO6StreamD1Ev @38
    _ZN6System2IO6StreamD2Ev @39
    _ZN6System9Threading12NativeThread14CallbackThreadEPv@4 @40
    _ZN6System9Threading12NativeThread5StartEPv @41
    _ZN6System9Threading12NativeThreadC1EPFvPvE @42
    _ZN6System9Threading12NativeThreadC2EPFvPvE @43
    _ZN6System9Threading12NativeThreadD0Ev @44
    _ZN6System9Threading12NativeThreadD1Ev @45
    _ZN6System9Threading12NativeThreadD2Ev @46
    _ZN6System9Threading6Thread5StartEPv @47
    _ZN6System9Threading6ThreadC1EPFvPvE @48
    _ZN6System9Threading6ThreadC2EPFvPvE @49
    _ZN6System9Threading6ThreadD0Ev @50
    _ZN6System9Threading6ThreadD1Ev @51
    _ZN6System9Threading6ThreadD2Ev @52
    _ZN7Console5WriteE9StdString @53
    _ZN7Console8ReadLineEv @54
    _ZN7Console9WriteLineE9StdString @55
    _ZN9StdString4cstrEv @56
    _ZN9StdString6LengthEv @57
    _ZN9StdStringC1EPKc @58
    _ZN9StdStringC1EPc @59
    _ZN9StdStringC1Ev @60
    _ZN9StdStringC2EPKc @61
    _ZN9StdStringC2EPc @62
    _ZN9StdStringC2Ev @63
    _ZN9StdStringD0Ev @64
    _ZN9StdStringD1Ev @65
    _ZN9StdStringD2Ev @66
    _ZN9StdStringpLEPc @67
    _ZN9StdStringpLEc @68
    _ZN9StdStringplEPc @69
    _ZN9StdStringplES_ @70
    _ZN9StdStringplEc @71
    _ZStplIcSt11char_traitsIcESaIcEESbIT_T0_T1_ERKS6_PKS3_ @72
    _ZStplIcSt11char_traitsIcESaIcEESbIT_T0_T1_ERKS6_S3_ @73
    _ZStplIcSt11char_traitsIcESaIcEESbIT_T0_T1_ERKS6_S8_ @74
    _ZTI10FileStream @75 DATA
    _ZTI9StdString @76 DATA
    _ZTIN6System2IO12BinaryWriterE @77 DATA
    _ZTIN6System2IO6StreamE @78 DATA
    _ZTIN6System9Threading12NativeThreadE @79 DATA
    _ZTIN6System9Threading6ThreadE @80 DATA
    _ZTS10FileStream @81 DATA
    _ZTS9StdString @82 DATA
    _ZTSN6System2IO12BinaryWriterE @83 DATA
    _ZTSN6System2IO6StreamE @84 DATA
    _ZTSN6System9Threading12NativeThreadE @85 DATA
    _ZTSN6System9Threading6ThreadE @86 DATA
    _ZTV10FileStream @87 DATA
    _ZTV9StdString @88 DATA
    _ZTVN6System2IO12BinaryWriterE @89 DATA
    _ZTVN6System2IO6StreamE @90 DATA
    _ZTVN6System9Threading12NativeThreadE @91 DATA
    _ZTVN6System9Threading6ThreadE @92 DATA
    getchar @93
